; Function Attrs: mustprogress uwtable
define noundef range(i32 0, 2) i32 @_Z19grpc_msg_decompress26grpc_compression_algorithmP17grpc_slice_bufferS1_(i32 noundef %0, ptr noundef readonly captures(none) %1, ptr noundef %2) local_unnamed_addr #3 personality ptr @__gxx_personality_v0 {
  %4 = alloca i32, align 4
  %5 = alloca %"class.absl::lts_20240722::log_internal::LogMessage", align 8
  store i32 %0, ptr %4, align 4, !tbaa !3
  switch i32 %0, label %24 [
    i32 0, label %6
    i32 1, label %20
    i32 2, label %22
  ]

6:                                                ; preds = %3
  %7 = getelementptr inbounds nuw i8, ptr %1, i64 16
  %8 = load i64, ptr %7, align 8, !tbaa !7
  %.not.i = icmp eq i64 %8, 0
  br i1 %.not.i, label %_ZL4copyP17grpc_slice_bufferS0_.exit, label %.lr.ph.i

.lr.ph.i:                                         ; preds = %6
  %9 = getelementptr inbounds nuw i8, ptr %1, i64 8
  br label %10

10:                                               ; preds = %_ZN9grpc_core9CSliceRefERK10grpc_sliceNS_13DebugLocationE.exit.i, %.lr.ph.i
  %.05.i = phi i64 [ 0, %.lr.ph.i ], [ %17, %_ZN9grpc_core9CSliceRefERK10grpc_sliceNS_13DebugLocationE.exit.i ]
  %11 = load ptr, ptr %9, align 8, !tbaa !12
  %12 = getelementptr inbounds nuw %struct.grpc_slice, ptr %11, i64 %.05.i
  %13 = load ptr, ptr %12, align 8, !tbaa !13
  %14 = icmp ugt ptr %13, inttoptr (i64 1 to ptr)
  br i1 %14, label %15, label %_ZN9grpc_core9CSliceRefERK10grpc_sliceNS_13DebugLocationE.exit.i

15:                                               ; preds = %10
  %16 = atomicrmw add ptr %13, i64 1 monotonic, align 8
  br label %_ZN9grpc_core9CSliceRefERK10grpc_sliceNS_13DebugLocationE.exit.i

_ZN9grpc_core9CSliceRefERK10grpc_sliceNS_13DebugLocationE.exit.i: ; preds = %15, %10
  tail call void @grpc_slice_buffer_add(ptr noundef %2, ptr noundef nonnull byval(%struct.grpc_slice) align 8 %12)
  %17 = add nuw i64 %.05.i, 1
  %18 = load i64, ptr %7, align 8, !tbaa !7
  %19 = icmp ult i64 %17, %18
  br i1 %19, label %10, label %_ZL4copyP17grpc_slice_bufferS0_.exit, !llvm.loop !16

20:                                               ; preds = %3
  %21 = tail call fastcc noundef i32 @_ZL15zlib_decompressP17grpc_slice_bufferS0_i(ptr noundef %1, ptr noundef %2, i32 noundef 0)
  br label %_ZL4copyP17grpc_slice_bufferS0_.exit

22:                                               ; preds = %3
  %23 = tail call fastcc noundef i32 @_ZL15zlib_decompressP17grpc_slice_bufferS0_i(ptr noundef %1, ptr noundef %2, i32 noundef 1)
  br label %_ZL4copyP17grpc_slice_bufferS0_.exit

24:                                               ; preds = %3
  call void @llvm.lifetime.start.p0(i64 16, ptr nonnull %5) #12
  call void @_ZN4absl12lts_2024072212log_internal10LogMessageC1EPKciNS2_8ErrorTagE(ptr noundef nonnull align 8 dereferenceable(16) %5, ptr noundef nonnull @.str, i32 noundef 190) #13
  invoke void @_ZN4absl12lts_2024072212log_internal10LogMessage19CopyToEncodedBufferILNS2_10StringTypeE0EEEvSt17basic_string_viewIcSt11char_traitsIcEE(ptr noundef nonnull align 8 dereferenceable(16) %5, i64 30, ptr nonnull @.str.1)
          to label %_ZN4absl12lts_2024072212log_internal10LogMessagelsILi31EEERS2_RAT__Kc.exit unwind label %27

_ZN4absl12lts_2024072212log_internal10LogMessagelsILi31EEERS2_RAT__Kc.exit: ; preds = %24
  %25 = invoke noundef nonnull align 8 dereferenceable(16) ptr @_ZN4absl12lts_2024072212log_internal10LogMessagelsI26grpc_compression_algorithmTnNSt9enable_ifIXntsr4absl16HasAbslStringifyIT_EE5valueEiE4typeELi0EEERS2_RKS6_(ptr noundef nonnull align 8 dereferenceable(16) %5, ptr noundef nonnull align 4 dereferenceable(4) %4)
          to label %26 unwind label %27

26:                                               ; preds = %_ZN4absl12lts_2024072212log_internal10LogMessagelsILi31EEERS2_RAT__Kc.exit
  call void @_ZN4absl12lts_2024072212log_internal10LogMessageD1Ev(ptr noundef nonnull align 8 dereferenceable(16) %5) #14
  call void @llvm.lifetime.end.p0(i64 16, ptr nonnull %5) #12
  br label %_ZL4copyP17grpc_slice_bufferS0_.exit

27:                                               ; preds = %24, %_ZN4absl12lts_2024072212log_internal10LogMessagelsILi31EEERS2_RAT__Kc.exit
  %28 = landingpad { ptr, i32 }
          cleanup
  call void @_ZN4absl12lts_2024072212log_internal10LogMessageD1Ev(ptr noundef nonnull align 8 dereferenceable(16) %5) #14
  call void @llvm.lifetime.end.p0(i64 16, ptr nonnull %5) #12
  resume { ptr, i32 } %28

_ZL4copyP17grpc_slice_bufferS0_.exit:             ; preds = %_ZN9grpc_core9CSliceRefERK10grpc_sliceNS_13DebugLocationE.exit.i, %6, %26, %22, %20
  %.0 = phi i32 [ 0, %26 ], [ %23, %22 ], [ %21, %20 ], [ 1, %6 ], [ 1, %_ZN9grpc_core9CSliceRefERK10grpc_sliceNS_13DebugLocationE.exit.i ]
  ret i32 %.0
}